target datalayout = "e-m:e-p270:32:32-p271:32:32-p272:64:64-i64:64-i128:128-f80:128-n8:16:32:64-S128"
target triple = "x86_64-pc-linux-gnu"

%"struct.llvm::support::detail::packed_endian_specific_integral" = type { %struct.anon }
%struct.anon = type { [4 x i8] }
%"struct.llvm::support::detail::packed_endian_specific_integral.2" = type { %struct.anon.3 }
%struct.anon.3 = type { [8 x i8] }
%"class.llvm::Expected.6" = type { %union.anon.7, i8, [7 x i8] }
%union.anon.7 = type { %"struct.llvm::AlignedCharArrayUnion.8" }
%"struct.llvm::AlignedCharArrayUnion.8" = type { [8 x i8] }
%"class.llvm::MemoryBufferRef" = type { %"class.llvm::StringRef", %"class.llvm::StringRef" }
%"class.llvm::StringRef" = type { ptr, i64 }
%"class.llvm::object::Binary" = type { ptr, i32, %"class.llvm::MemoryBufferRef" }
%"struct.llvm::support::detail::packed_endian_specific_integral.16" = type { %struct.anon.17 }
%struct.anon.17 = type { [2 x i8] }
%"class.llvm::object::XCOFFObjectFile" = type { %"class.llvm::object::ObjectFile", ptr, ptr, ptr, ptr, %"struct.llvm::object::XCOFFStringTable" }
%"class.llvm::object::ObjectFile" = type { %"class.llvm::object::SymbolicFile" }
%"class.llvm::object::SymbolicFile" = type { %"class.llvm::object::Binary" }
%"struct.llvm::object::XCOFFStringTable" = type { i32, ptr }
%"struct.llvm::object::XCOFFAuxiliaryHeader32" = type { %"struct.llvm::support::detail::packed_endian_specific_integral.16", %"struct.llvm::support::detail::packed_endian_specific_integral.16", %"struct.llvm::support::detail::packed_endian_specific_integral", %"struct.llvm::support::detail::packed_endian_specific_integral", %"struct.llvm::support::detail::packed_endian_specific_integral", %"struct.llvm::support::detail::packed_endian_specific_integral", %"struct.llvm::support::detail::packed_endian_specific_integral", %"struct.llvm::support::detail::packed_endian_specific_integral", %"struct.llvm::support::detail::packed_endian_specific_integral", %"struct.llvm::support::detail::packed_endian_specific_integral.16", %"struct.llvm::support::detail::packed_endian_specific_integral.16", %"struct.llvm::support::detail::packed_endian_specific_integral.16", %"struct.llvm::support::detail::packed_endian_specific_integral.16", %"struct.llvm::support::detail::packed_endian_specific_integral.16", %"struct.llvm::support::detail::packed_endian_specific_integral.16", %"struct.llvm::support::detail::packed_endian_specific_integral.16", %"struct.llvm::support::detail::packed_endian_specific_integral.16", %"struct.llvm::support::detail::packed_endian_specific_integral.16", i8, i8, %"struct.llvm::support::detail::packed_endian_specific_integral", %"struct.llvm::support::detail::packed_endian_specific_integral", %"struct.llvm::support::detail::packed_endian_specific_integral", i8, i8, i8, i8, %"struct.llvm::support::detail::packed_endian_specific_integral.16", %"struct.llvm::support::detail::packed_endian_specific_integral.16" }
%"struct.llvm::object::XCOFFAuxiliaryHeader64" = type { %"struct.llvm::support::detail::packed_endian_specific_integral.16", %"struct.llvm::support::detail::packed_endian_specific_integral.16", %"struct.llvm::support::detail::packed_endian_specific_integral", %"struct.llvm::support::detail::packed_endian_specific_integral.2", %"struct.llvm::support::detail::packed_endian_specific_integral.2", %"struct.llvm::support::detail::packed_endian_specific_integral.2", %"struct.llvm::support::detail::packed_endian_specific_integral.16", %"struct.llvm::support::detail::packed_endian_specific_integral.16", %"struct.llvm::support::detail::packed_endian_specific_integral.16", %"struct.llvm::support::detail::packed_endian_specific_integral.16", %"struct.llvm::support::detail::packed_endian_specific_integral.16", %"struct.llvm::support::detail::packed_endian_specific_integral.16", %"struct.llvm::support::detail::packed_endian_specific_integral.16", %"struct.llvm::support::detail::packed_endian_specific_integral.16", %"struct.llvm::support::detail::packed_endian_specific_integral.16", i8, i8, i8, i8, i8, i8, %"struct.llvm::support::detail::packed_endian_specific_integral.2", %"struct.llvm::support::detail::packed_endian_specific_integral.2", %"struct.llvm::support::detail::packed_endian_specific_integral.2", %"struct.llvm::support::detail::packed_endian_specific_integral.2", %"struct.llvm::support::detail::packed_endian_specific_integral.2", %"struct.llvm::support::detail::packed_endian_specific_integral.2", %"struct.llvm::support::detail::packed_endian_specific_integral.16", %"struct.llvm::support::detail::packed_endian_specific_integral.16", %"struct.llvm::support::detail::packed_endian_specific_integral.16" }

; Function Attrs: mustprogress nounwind uwtable
define linkonce_odr hidden noundef i32 @_ZN4llvm8byteswapIjvEET_S1_(i32 noundef %0) #0 comdat {
  %2 = alloca i32, align 4
  %3 = alloca i32, align 4
  store i32 %0, ptr %2, align 4
  %4 = load i32, ptr %2, align 4
  store i32 %4, ptr %3, align 4
  %5 = load i32, ptr %3, align 4
  %6 = call i32 @llvm.bswap.i32(i32 %5)
  ret i32 %6
}

; Function Attrs: mustprogress nounwind uwtable
define linkonce_odr hidden noundef i64 @_ZN4llvm8byteswapImvEET_S1_(i64 noundef %0) #0 comdat {
  %2 = alloca i64, align 8
  %3 = alloca i64, align 8
  store i64 %0, ptr %2, align 8
  %4 = load i64, ptr %2, align 8
  store i64 %4, ptr %3, align 8
  %5 = load i64, ptr %3, align 8
  %6 = call i64 @llvm.bswap.i64(i64 %5)
  ret i64 %6
}

; Function Attrs: mustprogress nounwind uwtable
define linkonce_odr hidden noundef i32 @_ZN4llvm3sys15getSwappedBytesEj(i32 noundef %0) #0 comdat {
  %2 = alloca i32, align 4
  store i32 %0, ptr %2, align 4
  %3 = load i32, ptr %2, align 4
  %4 = call noundef i32 @_ZN4llvm8byteswapIjvEET_S1_(i32 noundef %3) #12
  ret i32 %4
}

; Function Attrs: mustprogress nounwind uwtable
define linkonce_odr hidden noundef i64 @_ZN4llvm3sys15getSwappedBytesEm(i64 noundef %0) #0 comdat {
  %2 = alloca i64, align 8
  store i64 %0, ptr %2, align 8
  %3 = load i64, ptr %2, align 8
  %4 = call noundef i64 @_ZN4llvm8byteswapImvEET_S1_(i64 noundef %3) #12
  ret i64 %4
}

; Function Attrs: mustprogress nounwind uwtable
define linkonce_odr hidden void @_ZN4llvm3sys13swapByteOrderIjEEvRT_(ptr noundef nonnull align 4 dereferenceable(4) %0) #0 comdat {
  %2 = alloca ptr, align 8
  store ptr %0, ptr %2, align 8
  %3 = load ptr, ptr %2, align 8
  %4 = load i32, ptr %3, align 4
  %5 = call noundef i32 @_ZN4llvm3sys15getSwappedBytesEj(i32 noundef %4)
  %6 = load ptr, ptr %2, align 8
  store i32 %5, ptr %6, align 4
  ret void
}

; Function Attrs: mustprogress nounwind uwtable
define linkonce_odr hidden void @_ZN4llvm3sys13swapByteOrderImEEvRT_(ptr noundef nonnull align 8 dereferenceable(8) %0) #0 comdat {
  %2 = alloca ptr, align 8
  store ptr %0, ptr %2, align 8
  %3 = load ptr, ptr %2, align 8
  %4 = load i64, ptr %3, align 8
  %5 = call noundef i64 @_ZN4llvm3sys15getSwappedBytesEm(i64 noundef %4)
  %6 = load ptr, ptr %2, align 8
  store i64 %5, ptr %6, align 8
  ret void
}

; Function Attrs: mustprogress nounwind uwtable
define linkonce_odr hidden noundef i32 @_ZN4llvm7support6endian9byte_swapIjEET_S3_NS_10endiannessE(i32 noundef %0, i32 noundef %1) #0 comdat {
  %3 = alloca i32, align 4
  %4 = alloca i32, align 4
  store i32 %0, ptr %3, align 4
  store i32 %1, ptr %4, align 4
  %5 = load i32, ptr %4, align 4
  %6 = icmp ne i32 %5, 1
  br i1 %6, label %7, label %8

7:                                                ; preds = %2
  call void @_ZN4llvm3sys13swapByteOrderIjEEvRT_(ptr noundef nonnull align 4 dereferenceable(4) %3)
  br label %8

8:                                                ; preds = %7, %2
  %9 = load i32, ptr %3, align 4
  ret i32 %9
}

; Function Attrs: mustprogress nounwind uwtable
define linkonce_odr hidden noundef i64 @_ZN4llvm7support6endian9byte_swapImEET_S3_NS_10endiannessE(i64 noundef %0, i32 noundef %1) #0 comdat {
  %3 = alloca i64, align 8
  %4 = alloca i32, align 4
  store i64 %0, ptr %3, align 8
  store i32 %1, ptr %4, align 4
  %5 = load i32, ptr %4, align 4
  %6 = icmp ne i32 %5, 1
  br i1 %6, label %7, label %8

7:                                                ; preds = %2
  call void @_ZN4llvm3sys13swapByteOrderImEEvRT_(ptr noundef nonnull align 8 dereferenceable(8) %3)
  br label %8

8:                                                ; preds = %7, %2
  %9 = load i64, ptr %3, align 8
  ret i64 %9
}

; Function Attrs: mustprogress nounwind uwtable
define linkonce_odr hidden noundef i32 @_ZN4llvm7support6endian4readIjLm1EEET_PKvNS_10endiannessE(ptr noundef %0, i32 noundef %1) #0 comdat {
  %3 = alloca ptr, align 8
  %4 = alloca i32, align 4
  %5 = alloca i32, align 4
  store ptr %0, ptr %3, align 8
  store i32 %1, ptr %4, align 4
  %6 = load ptr, ptr %3, align 8
  call void @llvm.assume(i1 true) [ "align"(ptr %6, i64 1) ]
  call void @llvm.memcpy.p0.p0.i64(ptr align 4 %5, ptr align 1 %6, i64 4, i1 false)
  %7 = load i32, ptr %5, align 4
  %8 = load i32, ptr %4, align 4
  %9 = call noundef i32 @_ZN4llvm7support6endian9byte_swapIjEET_S3_NS_10endiannessE(i32 noundef %7, i32 noundef %8)
  ret i32 %9
}

; Function Attrs: mustprogress nounwind uwtable
define linkonce_odr hidden noundef i64 @_ZN4llvm7support6endian4readImLm1EEET_PKvNS_10endiannessE(ptr noundef %0, i32 noundef %1) #0 comdat {
  %3 = alloca ptr, align 8
  %4 = alloca i32, align 4
  %5 = alloca i64, align 8
  store ptr %0, ptr %3, align 8
  store i32 %1, ptr %4, align 4
  %6 = load ptr, ptr %3, align 8
  call void @llvm.assume(i1 true) [ "align"(ptr %6, i64 1) ]
  call void @llvm.memcpy.p0.p0.i64(ptr align 8 %5, ptr align 1 %6, i64 8, i1 false)
  %7 = load i64, ptr %5, align 8
  %8 = load i32, ptr %4, align 4
  %9 = call noundef i64 @_ZN4llvm7support6endian9byte_swapImEET_S3_NS_10endiannessE(i64 noundef %7, i32 noundef %8)
  ret i64 %9
}

; Function Attrs: mustprogress nounwind uwtable
define linkonce_odr hidden noundef i32 @_ZN4llvm7support6endian4readIjLNS_10endiannessE0ELm1EEET_PKv(ptr noundef %0) #0 comdat {
  %2 = alloca ptr, align 8
  store ptr %0, ptr %2, align 8
  %3 = load ptr, ptr %2, align 8
  %4 = call noundef i32 @_ZN4llvm7support6endian4readIjLm1EEET_PKvNS_10endiannessE(ptr noundef %3, i32 noundef 0)
  ret i32 %4
}

; Function Attrs: mustprogress nounwind uwtable
define linkonce_odr hidden noundef i64 @_ZN4llvm7support6endian4readImLNS_10endiannessE0ELm1EEET_PKv(ptr noundef %0) #0 comdat {
  %2 = alloca ptr, align 8
  store ptr %0, ptr %2, align 8
  %3 = load ptr, ptr %2, align 8
  %4 = call noundef i64 @_ZN4llvm7support6endian4readImLm1EEET_PKvNS_10endiannessE(ptr noundef %3, i32 noundef 0)
  ret i64 %4
}

; Function Attrs: mustprogress nounwind uwtable
define linkonce_odr hidden noundef i32 @_ZNK4llvm7support6detail31packed_endian_specific_integralIjLNS_10endiannessE0ELm1ELm1EEcvjEv(ptr noundef nonnull align 1 dereferenceable(4) %0) #0 comdat align 2 {
  %2 = alloca ptr, align 8
  store ptr %0, ptr %2, align 8
  %3 = load ptr, ptr %2, align 8
  %4 = getelementptr inbounds nuw %"struct.llvm::support::detail::packed_endian_specific_integral", ptr %3, i32 0, i32 0
  %5 = getelementptr inbounds nuw %struct.anon, ptr %4, i32 0, i32 0
  %6 = getelementptr inbounds [4 x i8], ptr %5, i64 0, i64 0
  %7 = call noundef i32 @_ZN4llvm7support6endian4readIjLNS_10endiannessE0ELm1EEET_PKv(ptr noundef %6)
  ret i32 %7
}

; Function Attrs: mustprogress nounwind uwtable
define linkonce_odr hidden noundef i64 @_ZNK4llvm7support6detail31packed_endian_specific_integralImLNS_10endiannessE0ELm1ELm1EEcvmEv(ptr noundef nonnull align 1 dereferenceable(8) %0) #0 comdat align 2 {
  %2 = alloca ptr, align 8
  store ptr %0, ptr %2, align 8
  %3 = load ptr, ptr %2, align 8
  %4 = getelementptr inbounds nuw %"struct.llvm::support::detail::packed_endian_specific_integral.2", ptr %3, i32 0, i32 0
  %5 = getelementptr inbounds nuw %struct.anon.3, ptr %4, i32 0, i32 0
  %6 = getelementptr inbounds [8 x i8], ptr %5, i64 0, i64 0
  %7 = call noundef i64 @_ZN4llvm7support6endian4readImLNS_10endiannessE0ELm1EEET_PKv(ptr noundef %6)
  ret i64 %7
}

; Function Attrs: mustprogress nounwind uwtable
define linkonce_odr hidden noundef ptr @_ZN4llvm8ExpectedImE10getStorageEv(ptr noundef nonnull align 8 dereferenceable(9) %0) #0 comdat align 2 {
  %2 = alloca ptr, align 8
  store ptr %0, ptr %2, align 8
  %3 = load ptr, ptr %2, align 8
  %4 = getelementptr inbounds nuw %"class.llvm::Expected.6", ptr %3, i32 0, i32 0
  ret ptr %4
}

; Function Attrs: mustprogress nounwind uwtable
define linkonce_odr hidden void @_ZN4llvm8ExpectedImEC2ImEEOT_PNSt9enable_ifIXsr3stdE16is_convertible_vIS3_mEEvE4typeE(ptr noundef nonnull align 8 dereferenceable(9) %0, ptr noundef nonnull align 8 dereferenceable(8) %1, ptr noundef %2) unnamed_addr #0 comdat align 2 {
  %4 = alloca ptr, align 8
  %5 = alloca ptr, align 8
  %6 = alloca ptr, align 8
  store ptr %0, ptr %4, align 8
  store ptr %1, ptr %5, align 8
  store ptr %2, ptr %6, align 8
  %7 = load ptr, ptr %4, align 8
  %8 = getelementptr inbounds nuw %"class.llvm::Expected.6", ptr %7, i32 0, i32 1
  %9 = load i8, ptr %8, align 8
  %10 = and i8 %9, -2
  %11 = or i8 %10, 0
  store i8 %11, ptr %8, align 8
  %12 = call noundef ptr @_ZN4llvm8ExpectedImE10getStorageEv(ptr noundef nonnull align 8 dereferenceable(9) %7)
  %13 = load ptr, ptr %5, align 8
  %14 = load i64, ptr %13, align 8
  store i64 %14, ptr %12, align 8
  ret void
}

; Function Attrs: mustprogress nounwind uwtable
define linkonce_odr hidden noundef i64 @_ZNK4llvm6object20XCOFFAuxiliaryHeaderINS0_22XCOFFAuxiliaryHeader32EE17getEntryPointAddrEv(ptr noundef nonnull align 1 dereferenceable(1) %0) #0 comdat align 2 {
  %2 = alloca ptr, align 8
  store ptr %0, ptr %2, align 8
  %3 = load ptr, ptr %2, align 8
  %4 = getelementptr inbounds nuw %"struct.llvm::object::XCOFFAuxiliaryHeader32", ptr %3, i32 0, i32 5
  %5 = call noundef i32 @_ZNK4llvm7support6detail31packed_endian_specific_integralIjLNS_10endiannessE0ELm1ELm1EEcvjEv(ptr noundef nonnull align 1 dereferenceable(4) %4)
  %6 = zext i32 %5 to i64
  ret i64 %6
}

; Function Attrs: mustprogress nounwind uwtable
define dso_local noundef ptr @_ZNK4llvm6object15XCOFFObjectFile17auxiliaryHeader32Ev(ptr noundef nonnull align 8 dereferenceable(96) %0) #0 align 2 {
  %2 = alloca ptr, align 8
  store ptr %0, ptr %2, align 8
  %3 = load ptr, ptr %2, align 8
  %4 = getelementptr inbounds nuw %"class.llvm::object::XCOFFObjectFile", ptr %3, i32 0, i32 2
  %5 = load ptr, ptr %4, align 8
  ret ptr %5
}

; Function Attrs: mustprogress nounwind uwtable
define linkonce_odr hidden noundef i64 @_ZNK4llvm6object20XCOFFAuxiliaryHeaderINS0_22XCOFFAuxiliaryHeader64EE17getEntryPointAddrEv(ptr noundef nonnull align 1 dereferenceable(1) %0) #0 comdat align 2 {
  %2 = alloca ptr, align 8
  store ptr %0, ptr %2, align 8
  %3 = load ptr, ptr %2, align 8
  %4 = getelementptr inbounds nuw %"struct.llvm::object::XCOFFAuxiliaryHeader64", ptr %3, i32 0, i32 24
  %5 = call noundef i64 @_ZNK4llvm7support6detail31packed_endian_specific_integralImLNS_10endiannessE0ELm1ELm1EEcvmEv(ptr noundef nonnull align 1 dereferenceable(8) %4)
  ret i64 %5
}

; Function Attrs: mustprogress nounwind uwtable
define dso_local noundef ptr @_ZNK4llvm6object15XCOFFObjectFile17auxiliaryHeader64Ev(ptr noundef nonnull align 8 dereferenceable(96) %0) #0 align 2 {
  %2 = alloca ptr, align 8
  store ptr %0, ptr %2, align 8
  %3 = load ptr, ptr %2, align 8
  %4 = getelementptr inbounds nuw %"class.llvm::object::XCOFFObjectFile", ptr %3, i32 0, i32 2
  %5 = load ptr, ptr %4, align 8
  ret ptr %5
}

; Function Attrs: mustprogress nounwind uwtable
define linkonce_odr hidden void @_ZN4llvm8ExpectedImEC2IiEEOT_PNSt9enable_ifIXsr3stdE16is_convertible_vIS3_mEEvE4typeE(ptr noundef nonnull align 8 dereferenceable(9) %0, ptr noundef nonnull align 4 dereferenceable(4) %1, ptr noundef %2) unnamed_addr #0 comdat align 2 {
  %4 = alloca ptr, align 8
  %5 = alloca ptr, align 8
  %6 = alloca ptr, align 8
  store ptr %0, ptr %4, align 8
  store ptr %1, ptr %5, align 8
  store ptr %2, ptr %6, align 8
  %7 = load ptr, ptr %4, align 8
  %8 = getelementptr inbounds nuw %"class.llvm::Expected.6", ptr %7, i32 0, i32 1
  %9 = load i8, ptr %8, align 8
  %10 = and i8 %9, -2
  %11 = or i8 %10, 0
  store i8 %11, ptr %8, align 8
  %12 = call noundef ptr @_ZN4llvm8ExpectedImE10getStorageEv(ptr noundef nonnull align 8 dereferenceable(9) %7)
  %13 = load ptr, ptr %5, align 8
  %14 = load i32, ptr %13, align 4
  %15 = sext i32 %14 to i64
  store i64 %15, ptr %12, align 8
  ret void
}

; Function Attrs: mustprogress nounwind uwtable
define dso_local void @_ZNK4llvm6object15XCOFFObjectFile15getStartAddressEv(ptr dead_on_unwind noalias writable sret(%"class.llvm::Expected.6") align 8 %0, ptr noundef nonnull align 8 dereferenceable(96) %1) unnamed_addr #0 align 2 {
  %3 = alloca ptr, align 8
  %4 = alloca ptr, align 8
  %5 = alloca i32, align 4
  %6 = alloca i64, align 8
  store ptr %0, ptr %3, align 8
  store ptr %1, ptr %4, align 8
  %7 = load ptr, ptr %4, align 8
  %8 = getelementptr inbounds nuw %"class.llvm::object::XCOFFObjectFile", ptr %7, i32 0, i32 2
  %9 = load ptr, ptr %8, align 8
  %10 = icmp eq ptr %9, null
  br i1 %10, label %11, label %12

11:                                               ; preds = %2
  store i32 0, ptr %5, align 4
  call void @_ZN4llvm8ExpectedImEC2IiEEOT_PNSt9enable_ifIXsr3stdE16is_convertible_vIS3_mEEvE4typeE(ptr noundef nonnull align 8 dereferenceable(9) %0, ptr noundef nonnull align 4 dereferenceable(4) %5, ptr noundef null)
  br label %25

12:                                               ; preds = %2
  %13 = load ptr, ptr %7, align 8
  %14 = getelementptr inbounds ptr, ptr %13, i64 8
  %15 = load ptr, ptr %14, align 8
  %16 = call noundef zeroext i1 %15(ptr noundef nonnull align 8 dereferenceable(96) %7)
  br i1 %16, label %17, label %20

17:                                               ; preds = %12
  %18 = call noundef ptr @_ZNK4llvm6object15XCOFFObjectFile17auxiliaryHeader64Ev(ptr noundef nonnull align 8 dereferenceable(96) %7)
  %19 = call noundef i64 @_ZNK4llvm6object20XCOFFAuxiliaryHeaderINS0_22XCOFFAuxiliaryHeader64EE17getEntryPointAddrEv(ptr noundef nonnull align 1 dereferenceable(1) %18)
  br label %23

20:                                               ; preds = %12
  %21 = call noundef ptr @_ZNK4llvm6object15XCOFFObjectFile17auxiliaryHeader32Ev(ptr noundef nonnull align 8 dereferenceable(96) %7)
  %22 = call noundef i64 @_ZNK4llvm6object20XCOFFAuxiliaryHeaderINS0_22XCOFFAuxiliaryHeader32EE17getEntryPointAddrEv(ptr noundef nonnull align 1 dereferenceable(1) %21)
  br label %23

23:                                               ; preds = %20, %17
  %24 = phi i64 [ %19, %17 ], [ %22, %20 ]
  store i64 %24, ptr %6, align 8
  call void @_ZN4llvm8ExpectedImEC2ImEEOT_PNSt9enable_ifIXsr3stdE16is_convertible_vIS3_mEEvE4typeE(ptr noundef nonnull align 8 dereferenceable(9) %0, ptr noundef nonnull align 8 dereferenceable(8) %6, ptr noundef null)
  br label %25

25:                                               ; preds = %23, %11
  ret void
}