; Function Attrs: mustprogress nounwind uwtable
define dso_local void @_ZNK4llvm6object15XCOFFObjectFile15getStartAddressEv(ptr dead_on_unwind noalias nocapture writable sret(%"class.llvm::Expected.6") align 8 %0, ptr noundef nonnull align 8 dereferenceable(96) %1) unnamed_addr #0 align 2 {
  %3 = getelementptr inbounds nuw i8, ptr %1, i64 56
  %4 = load ptr, ptr %3, align 8
  %5 = icmp eq ptr %4, null
  br i1 %5, label %19, label %6

6:                                                ; preds = %2
  %7 = load ptr, ptr %1, align 8
  %8 = getelementptr inbounds i8, ptr %7, i64 64
  %9 = load ptr, ptr %8, align 8
  %10 = tail call noundef zeroext i1 %9(ptr noundef nonnull align 8 dereferenceable(96) %1) #23
  %11 = load ptr, ptr %3, align 8
  br i1 %10, label %12, label %15

12:                                               ; preds = %6
  %13 = getelementptr inbounds nuw i8, ptr %11, i64 80
  call void @llvm.assume(i1 true) [ "align"(ptr %13, i64 1) ]
  %.0.copyload.i.i.i.i = load i64, ptr %13, align 1
  %14 = tail call noundef i64 @llvm.bswap.i64(i64 %.0.copyload.i.i.i.i)
  br label %19

15:                                               ; preds = %6
  %16 = getelementptr inbounds nuw i8, ptr %11, i64 16
  call void @llvm.assume(i1 true) [ "align"(ptr %16, i64 1) ]
  %.0.copyload.i.i.i.i1 = load i32, ptr %16, align 1
  %17 = tail call noundef i32 @llvm.bswap.i32(i32 %.0.copyload.i.i.i.i1)
  %18 = zext i32 %17 to i64
  br label %19

19:                                               ; preds = %12, %15, %2
  %storemerge = phi i64 [ 0, %2 ], [ %14, %12 ], [ %18, %15 ]
  %20 = getelementptr inbounds nuw i8, ptr %0, i64 8
  %21 = load i8, ptr %20, align 8
  %22 = and i8 %21, -2
  store i8 %22, ptr %20, align 8
  store i64 %storemerge, ptr %0, align 8
  ret void
}